target datalayout = "e-m:e-p270:32:32-p271:32:32-p272:64:64-i64:64-i128:128-f80:128-n8:16:32:64-S128"
target triple = "x86_64-pc-linux-gnu"

@.str = private unnamed_addr constant [32 x i8] c"../openssl/ssl/ssl_rsa_legacy.c\00", align 1
@__func__.SSL_use_RSAPrivateKey_file = private unnamed_addr constant [27 x i8] c"SSL_use_RSAPrivateKey_file\00", align 1

; Function Attrs: nounwind uwtable
define i32 @SSL_use_RSAPrivateKey_file(ptr noundef %0, ptr noundef %1, i32 noundef %2) #0 {
  %4 = alloca ptr, align 8
  %5 = alloca ptr, align 8
  %6 = alloca i32, align 4
  %7 = alloca i32, align 4
  %8 = alloca i32, align 4
  %9 = alloca ptr, align 8
  %10 = alloca ptr, align 8
  store ptr %0, ptr %4, align 8, !tbaa !3
  store ptr %1, ptr %5, align 8, !tbaa !14
  store i32 %2, ptr %6, align 4, !tbaa !12
  call void @llvm.lifetime.start.p0(i64 4, ptr %7) #3
  call void @llvm.lifetime.start.p0(i64 4, ptr %8) #3
  store i32 0, ptr %8, align 4, !tbaa !12
  call void @llvm.lifetime.start.p0(i64 8, ptr %9) #3
  store ptr null, ptr %9, align 8, !tbaa !16
  call void @llvm.lifetime.start.p0(i64 8, ptr %10) #3
  store ptr null, ptr %10, align 8, !tbaa !8
  %11 = load ptr, ptr %5, align 8, !tbaa !14
  %12 = icmp eq ptr %11, null
  br i1 %12, label %13, label %14

13:                                               ; preds = %3
  call void @ERR_new()
  call void @ERR_set_debug(ptr noundef @.str, i32 noundef 50, ptr noundef @__func__.SSL_use_RSAPrivateKey_file)
  call void (i32, i32, ptr, ...) @ERR_set_error(i32 noundef 20, i32 noundef 786690, ptr noundef null)
  br label %55

14:                                               ; preds = %3
  %15 = call ptr @BIO_s_file()
  %16 = call ptr @BIO_new(ptr noundef %15)
  store ptr %16, ptr %9, align 8, !tbaa !16
  %17 = load ptr, ptr %9, align 8, !tbaa !16
  %18 = icmp eq ptr %17, null
  br i1 %18, label %19, label %20

19:                                               ; preds = %14
  call void @ERR_new()
  call void @ERR_set_debug(ptr noundef @.str, i32 noundef 56, ptr noundef @__func__.SSL_use_RSAPrivateKey_file)
  call void (i32, i32, ptr, ...) @ERR_set_error(i32 noundef 20, i32 noundef 524295, ptr noundef null)
  br label %55

20:                                               ; preds = %14
  %21 = load ptr, ptr %9, align 8, !tbaa !16
  %22 = load ptr, ptr %5, align 8, !tbaa !14
  %23 = call i64 @BIO_ctrl(ptr noundef %21, i32 noundef 108, i64 noundef 3, ptr noundef %22)
  %24 = trunc i64 %23 to i32
  %25 = icmp sle i32 %24, 0
  br i1 %25, label %26, label %27

26:                                               ; preds = %20
  call void @ERR_new()
  call void @ERR_set_debug(ptr noundef @.str, i32 noundef 61, ptr noundef @__func__.SSL_use_RSAPrivateKey_file)
  call void (i32, i32, ptr, ...) @ERR_set_error(i32 noundef 20, i32 noundef 524290, ptr noundef null)
  br label %55

27:                                               ; preds = %20
  %28 = load i32, ptr %6, align 4, !tbaa !12
  %29 = icmp eq i32 %28, 2
  br i1 %29, label %30, label %33

30:                                               ; preds = %27
  store i32 524301, ptr %7, align 4, !tbaa !12
  %31 = load ptr, ptr %9, align 8, !tbaa !16
  %32 = call ptr @d2i_RSAPrivateKey_bio(ptr noundef %31, ptr noundef null)
  store ptr %32, ptr %10, align 8, !tbaa !8
  br label %45

33:                                               ; preds = %27
  %34 = load i32, ptr %6, align 4, !tbaa !12
  %35 = icmp eq i32 %34, 1
  br i1 %35, label %36, label %43

36:                                               ; preds = %33
  store i32 524297, ptr %7, align 4, !tbaa !12
  %37 = load ptr, ptr %9, align 8, !tbaa !16
  %38 = load ptr, ptr %4, align 8, !tbaa !3
  %39 = call ptr @SSL_get_default_passwd_cb(ptr noundef %38)
  %40 = load ptr, ptr %4, align 8, !tbaa !3
  %41 = call ptr @SSL_get_default_passwd_cb_userdata(ptr noundef %40)
  %42 = call ptr @PEM_read_bio_RSAPrivateKey(ptr noundef %37, ptr noundef null, ptr noundef %39, ptr noundef %41)
  store ptr %42, ptr %10, align 8, !tbaa !8
  br label %44

43:                                               ; preds = %33
  call void @ERR_new()
  call void @ERR_set_debug(ptr noundef @.str, i32 noundef 73, ptr noundef @__func__.SSL_use_RSAPrivateKey_file)
  call void (i32, i32, ptr, ...) @ERR_set_error(i32 noundef 20, i32 noundef 124, ptr noundef null)
  br label %55

44:                                               ; preds = %36
  br label %45

45:                                               ; preds = %44, %30
  %46 = load ptr, ptr %10, align 8, !tbaa !8
  %47 = icmp eq ptr %46, null
  br i1 %47, label %48, label %50

48:                                               ; preds = %45
  call void @ERR_new()
  call void @ERR_set_debug(ptr noundef @.str, i32 noundef 77, ptr noundef @__func__.SSL_use_RSAPrivateKey_file)
  %49 = load i32, ptr %7, align 4, !tbaa !12
  call void (i32, i32, ptr, ...) @ERR_set_error(i32 noundef 20, i32 noundef %49, ptr noundef null)
  br label %55

50:                                               ; preds = %45
  %51 = load ptr, ptr %4, align 8, !tbaa !3
  %52 = load ptr, ptr %10, align 8, !tbaa !8
  %53 = call i32 @SSL_use_RSAPrivateKey(ptr noundef %51, ptr noundef %52)
  store i32 %53, ptr %8, align 4, !tbaa !12
  %54 = load ptr, ptr %10, align 8, !tbaa !8
  call void @RSA_free(ptr noundef %54)
  br label %55

55:                                               ; preds = %50, %48, %43, %26, %19, %13
  %56 = load ptr, ptr %9, align 8, !tbaa !16
  %57 = call i32 @BIO_free(ptr noundef %56)
  %58 = load i32, ptr %8, align 4, !tbaa !12
  call void @llvm.lifetime.end.p0(i64 8, ptr %10) #3
  call void @llvm.lifetime.end.p0(i64 8, ptr %9) #3
  call void @llvm.lifetime.end.p0(i64 4, ptr %8) #3
  call void @llvm.lifetime.end.p0(i64 4, ptr %7) #3
  ret i32 %58
}